target datalayout = "e-m:e-p270:32:32-p271:32:32-p272:64:64-i64:64-i128:128-f80:128-n8:16:32:64-S128"
target triple = "x86_64-pc-linux-gnu"

%struct.ascend_state_t = type { ptr, ptr, i32, ptr, ptr, ptr, i8, i64, i64, i32, i32, i64, i32, %struct.ascend_token_t }
%struct.ascend_token_t = type { i32, i32, i16, i8, [64 x i8] }
%struct.stat = type { i64, i64, i64, i32, i32, i32, i32, i64, i64, i64, i64, %struct.timespec, %struct.timespec, %struct.timespec, [3 x i64] }
%struct.timespec = type { i64, i64 }
%struct.wtap_rec = type { i32, i32, i32, %struct.nstime_t, i32, %struct.nstime_t, i8, %union.anon, ptr, i8, %struct.Buffer, %struct.Buffer }
%struct.nstime_t = type { i64, i32 }
%union.anon = type { %struct.wtap_packet_header }
%struct.wtap_packet_header = type { i32, i32, i32, i32, %union.wtap_pseudo_header }
%union.wtap_pseudo_header = type { %struct.erf_mc_phdr }
%struct.erf_mc_phdr = type { %struct.erf_phdr, [16 x %struct.erf_ehdr], %union.anon.1 }
%struct.erf_phdr = type { i64, i8, i8, i16, i16, i16 }
%struct.erf_ehdr = type { i64 }
%union.anon.1 = type { i32 }
%struct.Buffer = type { ptr, i64, i64, i64 }
%struct.wtap = type { ptr, ptr, i8, i32, i32, ptr, ptr, ptr, i32, ptr, ptr, ptr, ptr, ptr, ptr, ptr, ptr, ptr, ptr, i32, i32, ptr, ptr, ptr, ptr }
%struct.ascend_t = type { i64, i8, i64 }

@ascend_file_type_subtype = internal global i32 -1, align 4

; Function Attrs: null_pointer_is_valid sspstrong uwtable
define hidden i32 @ascend_open(ptr noundef %0, ptr noundef %1, ptr noundef %2) #0 {
  %4 = alloca i32, align 4
  %5 = alloca ptr, align 8
  %6 = alloca ptr, align 8
  %7 = alloca ptr, align 8
  %8 = alloca i64, align 8
  %9 = alloca [128 x i8], align 16
  %10 = alloca %struct.ascend_state_t, align 8
  %11 = alloca %struct.stat, align 8
  %12 = alloca ptr, align 8
  %13 = alloca %struct.wtap_rec, align 8
  %14 = alloca i32, align 4
  %15 = alloca i64, align 8
  %16 = alloca i64, align 8
  %17 = alloca ptr, align 8
  %18 = alloca ptr, align 8
  store ptr %0, ptr %5, align 8
  store ptr %1, ptr %6, align 8
  store ptr %2, ptr %7, align 8
  call void @llvm.lifetime.start.p0(i64 8, ptr %8) #11
  call void @llvm.lifetime.start.p0(i64 128, ptr %9) #11
  call void @llvm.lifetime.start.p0(i64 168, ptr %10) #11
  call void @llvm.memset.p0.i64(ptr align 8 %10, i8 0, i64 168, i1 false)
  call void @llvm.lifetime.start.p0(i64 144, ptr %11) #11
  call void @llvm.lifetime.start.p0(i64 8, ptr %12) #11
  call void @llvm.lifetime.start.p0(i64 312, ptr %13) #11
  %19 = load ptr, ptr %5, align 8
  %20 = getelementptr inbounds nuw %struct.wtap, ptr %19, i32 0, i32 13
  store ptr null, ptr %20, align 8
  %21 = load ptr, ptr %5, align 8
  %22 = load ptr, ptr %6, align 8
  %23 = load ptr, ptr %7, align 8
  %24 = call i64 @ascend_find_next_packet(ptr noundef %21, ptr noundef %22, ptr noundef %23)
  store i64 %24, ptr %8, align 8
  %25 = load i64, ptr %8, align 8
  %26 = icmp eq i64 %25, -1
  br i1 %26, label %27, label %37

27:                                               ; preds = %3
  %28 = load ptr, ptr %6, align 8
  %29 = load i32, ptr %28, align 4
  %30 = icmp ne i32 %29, 0
  br i1 %30, label %31, label %36

31:                                               ; preds = %27
  %32 = load ptr, ptr %6, align 8
  %33 = load i32, ptr %32, align 4
  %34 = icmp ne i32 %33, -12
  br i1 %34, label %35, label %36

35:                                               ; preds = %31
  store i32 -1, ptr %4, align 4
  store i32 1, ptr %14, align 4
  br label %124

36:                                               ; preds = %31, %27
  store i32 0, ptr %4, align 4
  store i32 1, ptr %14, align 4
  br label %124

37:                                               ; preds = %3
  %38 = load ptr, ptr %5, align 8
  %39 = getelementptr inbounds nuw %struct.wtap, ptr %38, i32 0, i32 0
  %40 = load ptr, ptr %39, align 8
  %41 = getelementptr inbounds nuw %struct.ascend_state_t, ptr %10, i32 0, i32 0
  store ptr %40, ptr %41, align 8
  %42 = getelementptr inbounds nuw %struct.wtap_rec, ptr %13, i32 0, i32 7
  %43 = getelementptr inbounds nuw %struct.wtap_packet_header, ptr %42, i32 0, i32 4
  %44 = getelementptr inbounds nuw %struct.ascend_state_t, ptr %10, i32 0, i32 4
  store ptr %43, ptr %44, align 8
  %45 = getelementptr inbounds [128 x i8], ptr %9, i64 0, i64 0
  %46 = load ptr, ptr %6, align 8
  %47 = load ptr, ptr %7, align 8
  %48 = call zeroext i1 @run_ascend_parser(ptr noundef %45, ptr noundef %10, ptr noundef %46, ptr noundef %47)
  %49 = zext i1 %48 to i32
  %50 = icmp ne i32 %49, 0
  br i1 %50, label %51, label %56

51:                                               ; preds = %37
  %52 = load ptr, ptr %6, align 8
  %53 = load i32, ptr %52, align 4
  %54 = icmp ne i32 %53, 0
  br i1 %54, label %55, label %56

55:                                               ; preds = %51
  store i32 -1, ptr %4, align 4
  store i32 1, ptr %14, align 4
  br label %124

56:                                               ; preds = %51, %37
  %57 = getelementptr inbounds nuw %struct.ascend_state_t, ptr %10, i32 0, i32 10
  %58 = load i32, ptr %57, align 4
  %59 = icmp eq i32 %58, 0
  br i1 %59, label %60, label %61

60:                                               ; preds = %56
  store i32 0, ptr %4, align 4
  store i32 1, ptr %14, align 4
  br label %124

61:                                               ; preds = %56
  %62 = load i32, ptr @ascend_file_type_subtype, align 4
  %63 = load ptr, ptr %5, align 8
  %64 = getelementptr inbounds nuw %struct.wtap, ptr %63, i32 0, i32 3
  store i32 %62, ptr %64, align 4
  %65 = load ptr, ptr %5, align 8
  %66 = getelementptr inbounds nuw %struct.wtap, ptr %65, i32 0, i32 19
  store i32 16, ptr %66, align 8
  %67 = load ptr, ptr %5, align 8
  %68 = getelementptr inbounds nuw %struct.wtap, ptr %67, i32 0, i32 4
  store i32 128, ptr %68, align 8
  %69 = load ptr, ptr %5, align 8
  %70 = getelementptr inbounds nuw %struct.wtap, ptr %69, i32 0, i32 15
  store ptr @ascend_read, ptr %70, align 8
  %71 = load ptr, ptr %5, align 8
  %72 = getelementptr inbounds nuw %struct.wtap, ptr %71, i32 0, i32 16
  store ptr @ascend_seek_read, ptr %72, align 8
  call void @llvm.lifetime.start.p0(i64 8, ptr %15) #11
  store i64 1, ptr %15, align 8
  call void @llvm.lifetime.start.p0(i64 8, ptr %16) #11
  store i64 24, ptr %16, align 8
  call void @llvm.lifetime.start.p0(i64 8, ptr %17) #11
  %73 = load i64, ptr %16, align 8
  %74 = icmp eq i64 %73, 1
  br i1 %74, label %75, label %78

75:                                               ; preds = %61
  %76 = load i64, ptr %15, align 8
  %77 = call noalias ptr @g_malloc(i64 noundef %76) #12
  store ptr %77, ptr %17, align 8
  br label %99

78:                                               ; preds = %61
  %79 = load i64, ptr %15, align 8
  %80 = call i1 @llvm.is.constant.i64(i64 %79)
  br i1 %80, label %81, label %94

81:                                               ; preds = %78
  %82 = load i64, ptr %16, align 8
  %83 = icmp eq i64 %82, 0
  br i1 %83, label %89, label %84

84:                                               ; preds = %81
  %85 = load i64, ptr %15, align 8
  %86 = load i64, ptr %16, align 8
  %87 = udiv i64 -1, %86
  %88 = icmp ule i64 %85, %87
  br i1 %88, label %89, label %94

89:                                               ; preds = %84, %81
  %90 = load i64, ptr %15, align 8
  %91 = load i64, ptr %16, align 8
  %92 = mul i64 %90, %91
  %93 = call noalias ptr @g_malloc(i64 noundef %92) #12
  store ptr %93, ptr %17, align 8
  br label %98

94:                                               ; preds = %84, %78
  %95 = load i64, ptr %15, align 8
  %96 = load i64, ptr %16, align 8
  %97 = call noalias ptr @g_malloc_n(i64 noundef %95, i64 noundef %96) #13
  store ptr %97, ptr %17, align 8
  br label %98

98:                                               ; preds = %94, %89
  br label %99

99:                                               ; preds = %98, %75
  %100 = load ptr, ptr %17, align 8
  store ptr %100, ptr %18, align 8
  call void @llvm.lifetime.end.p0(i64 8, ptr %17) #11
  call void @llvm.lifetime.end.p0(i64 8, ptr %16) #11
  call void @llvm.lifetime.end.p0(i64 8, ptr %15) #11
  %101 = load ptr, ptr %18, align 8
  store ptr %101, ptr %12, align 8
  %102 = load ptr, ptr %12, align 8
  %103 = load ptr, ptr %5, align 8
  %104 = getelementptr inbounds nuw %struct.wtap, ptr %103, i32 0, i32 13
  store ptr %102, ptr %104, align 8
  %105 = load i64, ptr %8, align 8
  %106 = load ptr, ptr %12, align 8
  %107 = getelementptr inbounds nuw %struct.ascend_t, ptr %106, i32 0, i32 2
  store i64 %105, ptr %107, align 8
  %108 = load ptr, ptr %5, align 8
  %109 = load ptr, ptr %6, align 8
  %110 = call i32 @wtap_fstat(ptr noundef %108, ptr noundef %11, ptr noundef %109)
  %111 = icmp eq i32 %110, -1
  br i1 %111, label %112, label %113

112:                                              ; preds = %99
  store i32 -1, ptr %4, align 4
  store i32 1, ptr %14, align 4
  br label %124

113:                                              ; preds = %99
  %114 = getelementptr inbounds nuw %struct.stat, ptr %11, i32 0, i32 13
  %115 = getelementptr inbounds nuw %struct.timespec, ptr %114, i32 0, i32 0
  %116 = load i64, ptr %115, align 8
  %117 = load ptr, ptr %12, align 8
  %118 = getelementptr inbounds nuw %struct.ascend_t, ptr %117, i32 0, i32 0
  store i64 %116, ptr %118, align 8
  %119 = load ptr, ptr %12, align 8
  %120 = getelementptr inbounds nuw %struct.ascend_t, ptr %119, i32 0, i32 1
  store i8 0, ptr %120, align 8
  %121 = load ptr, ptr %5, align 8
  %122 = getelementptr inbounds nuw %struct.wtap, ptr %121, i32 0, i32 20
  store i32 6, ptr %122, align 4
  %123 = load ptr, ptr %5, align 8
  call void @wtap_add_generated_idb(ptr noundef %123)
  store i32 1, ptr %4, align 4
  store i32 1, ptr %14, align 4
  br label %124

124:                                              ; preds = %113, %112, %60, %55, %36, %35
  call void @llvm.lifetime.end.p0(i64 312, ptr %13) #11
  call void @llvm.lifetime.end.p0(i64 8, ptr %12) #11
  call void @llvm.lifetime.end.p0(i64 144, ptr %11) #11
  call void @llvm.lifetime.end.p0(i64 168, ptr %10) #11
  call void @llvm.lifetime.end.p0(i64 128, ptr %9) #11
  call void @llvm.lifetime.end.p0(i64 8, ptr %8) #11
  %125 = load i32, ptr %4, align 4
  ret i32 %125
}