; Function Attrs: null_pointer_is_valid sspstrong uwtable
define hidden range(i32 -1, 2) i32 @ascend_open(ptr noundef initializes((96, 104)) %0, ptr noundef %1, ptr noundef %2) local_unnamed_addr #0 {
  %4 = alloca [128 x i8], align 16
  %5 = alloca %struct.ascend_state_t, align 8
  %6 = alloca %struct.stat, align 8
  %7 = alloca %struct.wtap_rec, align 8
  call void @llvm.lifetime.start.p0(i64 128, ptr nonnull %4) #5
  call void @llvm.lifetime.start.p0(i64 168, ptr nonnull %5) #5
  %8 = getelementptr inbounds nuw i8, ptr %5, i64 8
  call void @llvm.memset.p0.i64(ptr noundef nonnull align 8 dereferenceable(168) %8, i8 0, i64 160, i1 false)
  call void @llvm.lifetime.start.p0(i64 144, ptr nonnull %6) #5
  call void @llvm.lifetime.start.p0(i64 312, ptr nonnull %7) #5
  %9 = getelementptr inbounds nuw i8, ptr %0, i64 96
  store ptr null, ptr %9, align 8
  %10 = tail call fastcc i64 @ascend_find_next_packet(ptr noundef %0, ptr noundef %1, ptr noundef %2)
  %11 = icmp eq i64 %10, -1
  br i1 %11, label %12, label %15

12:                                               ; preds = %3
  %13 = load i32, ptr %1, align 4
  %switch.selectcmp.case1 = icmp ne i32 %13, 0
  %switch.selectcmp.case2 = icmp ne i32 %13, -12
  %switch.selectcmp.not = and i1 %switch.selectcmp.case1, %switch.selectcmp.case2
  %14 = sext i1 %switch.selectcmp.not to i32
  br label %42

15:                                               ; preds = %3
  %16 = load ptr, ptr %0, align 8
  store ptr %16, ptr %5, align 8
  %17 = getelementptr inbounds nuw i8, ptr %7, i64 80
  %18 = getelementptr inbounds nuw i8, ptr %5, i64 32
  store ptr %17, ptr %18, align 8
  %19 = call zeroext i1 @run_ascend_parser(ptr noundef nonnull %4, ptr noundef nonnull %5, ptr noundef %1, ptr noundef %2)
  br i1 %19, label %20, label %22

20:                                               ; preds = %15
  %21 = load i32, ptr %1, align 4
  %.not = icmp eq i32 %21, 0
  br i1 %.not, label %22, label %42

22:                                               ; preds = %20, %15
  %23 = getelementptr inbounds nuw i8, ptr %5, i64 76
  %24 = load i32, ptr %23, align 4
  %25 = icmp eq i32 %24, 0
  br i1 %25, label %42, label %26

26:                                               ; preds = %22
  %27 = load i32, ptr @ascend_file_type_subtype, align 4
  %28 = getelementptr inbounds nuw i8, ptr %0, i64 20
  store i32 %27, ptr %28, align 4
  %29 = getelementptr inbounds nuw i8, ptr %0, i64 144
  store i32 16, ptr %29, align 8
  %30 = getelementptr inbounds nuw i8, ptr %0, i64 24
  store i32 128, ptr %30, align 8
  %31 = getelementptr inbounds nuw i8, ptr %0, i64 112
  store ptr @ascend_read, ptr %31, align 8
  %32 = getelementptr inbounds nuw i8, ptr %0, i64 120
  store ptr @ascend_seek_read, ptr %32, align 8
  %33 = call noalias dereferenceable_or_null(24) ptr @g_malloc(i64 noundef 24) #6
  store ptr %33, ptr %9, align 8
  %34 = getelementptr inbounds nuw i8, ptr %33, i64 16
  store i64 %10, ptr %34, align 8
  %35 = call i32 @wtap_fstat(ptr noundef %0, ptr noundef nonnull %6, ptr noundef %1)
  %36 = icmp eq i32 %35, -1
  br i1 %36, label %42, label %37

37:                                               ; preds = %26
  %38 = getelementptr inbounds nuw i8, ptr %6, i64 104
  %39 = load i64, ptr %38, align 8
  store i64 %39, ptr %33, align 8
  %40 = getelementptr inbounds nuw i8, ptr %33, i64 8
  store i8 0, ptr %40, align 8
  %41 = getelementptr inbounds nuw i8, ptr %0, i64 148
  store i32 6, ptr %41, align 4
  call void @wtap_add_generated_idb(ptr noundef %0)
  br label %42

42:                                               ; preds = %12, %26, %22, %20, %37
  %.0 = phi i32 [ 1, %37 ], [ -1, %20 ], [ 0, %22 ], [ -1, %26 ], [ %14, %12 ]
  call void @llvm.lifetime.end.p0(i64 312, ptr nonnull %7) #5
  call void @llvm.lifetime.end.p0(i64 144, ptr nonnull %6) #5
  call void @llvm.lifetime.end.p0(i64 168, ptr nonnull %5) #5
  call void @llvm.lifetime.end.p0(i64 128, ptr nonnull %4) #5
  ret i32 %.0
}